; Function Attrs: nounwind uwtable
define void @evbuffer_free(ptr noundef %0) local_unnamed_addr #1 {
  %2 = getelementptr inbounds nuw i8, ptr %0, i64 56
  %3 = load ptr, ptr %2, align 8
  %.not = icmp eq ptr %3, null
  br i1 %.not, label %7, label %4

4:                                                ; preds = %1
  %5 = load ptr, ptr getelementptr inbounds nuw (i8, ptr @evthread_lock_fns_, i64 24), align 8
  %6 = tail call i32 %5(i32 noundef 0, ptr noundef nonnull %3) #16
  br label %7

7:                                                ; preds = %4, %1
  tail call void @evbuffer_decref_and_unlock_(ptr noundef nonnull %0)
  ret void
}